(lp0
ccopy_reg
_reconstructor
p1
(cgeometry_msgs.msg._PoseStamped
PoseStamped
p2
c__builtin__
object
p3
Ntp4
Rp5
(lp6
g1
(cstd_msgs.msg._Header
Header
p7
g3
Ntp8
Rp9
(lp10
I0
aF0.0
aS'right_link_base'
p11
abag1
(cgeometry_msgs.msg._Pose
Pose
p12
g3
Ntp13
Rp14
(lp15
g1
(cgeometry_msgs.msg._Point
Point
p16
g3
Ntp17
Rp18
(lp19
F0.2038625946270214
aF0.04662413766757445
aF0.7121120681515104
abag1
(cgeometry_msgs.msg._Quaternion
Quaternion
p20
g3
Ntp21
Rp22
(lp23
F-0.08595141818686053
aF-0.726563851268081
aF0.07160164967556513
aF0.6779310639776723
abababag1
(g2
g3
Ntp24
Rp25
(lp26
g1
(g7
g3
Ntp27
Rp28
(lp29
I1
aF0.442702812
aS'right_link_base'
p30
abag1
(g12
g3
Ntp31
Rp32
(lp33
g1
(g16
g3
Ntp34
Rp35
(lp36
F0.2122773846475513
aF0.08251017048206677
aF0.7333052193840236
abag1
(g20
g3
Ntp37
Rp38
(lp39
F-0.08477019230742852
aF-0.7335845416830326
aF0.15514793977884744
aF0.6561987896074145
abababag1
(g2
g3
Ntp40
Rp41
(lp42
g1
(g7
g3
Ntp43
Rp44
(lp45
I2
aF0.665405624
aS'right_link_base'
p46
abag1
(g12
g3
Ntp47
Rp48
(lp49
g1
(g16
g3
Ntp50
Rp51
(lp52
F0.2158319512796359
aF0.12028195573427047
aF0.7526369000970409
abag1
(g20
g3
Ntp53
Rp54
(lp55
F-0.08184727748447518
aF-0.7387330369415108
aF0.2356832430438454
aF0.6261213398758162
abababag1
(g2
g3
Ntp56
Rp57
(lp58
g1
(g7
g3
Ntp59
Rp60
(lp61
I3
aF0.888108437
aS'right_link_base'
p62
abag1
(g12
g3
Ntp63
Rp64
(lp65
g1
(g16
g3
Ntp66
Rp67
(lp68
F0.21417120838982046
aF0.15899504643851015
aF0.7701938144471382
abag1
(g20
g3
Ntp69
Rp70
(lp71
F-0.07730060395623384
aF-0.7421966221737943
aF0.31220822197953757
aF0.5879581760552254
abababag1
(g2
g3
Ntp72
Rp73
(lp74
g1
(g7
g3
Ntp75
Rp76
(lp77
I4
aF1.110811249
aS'right_link_base'
p78
abag1
(g12
g3
Ntp79
Rp80
(lp81
g1
(g16
g3
Ntp82
Rp83
(lp84
F0.20709915982416527
aF0.19766531468795012
aF0.7861031234848347
abag1
(g20
g3
Ntp85
Rp86
(lp87
F-0.07127399994706365
aF-0.7441674482703203
aF0.3837595871099872
aF0.5420916944277585
abababag1
(g2
g3
Ntp88
Rp89
(lp90
g1
(g7
g3
Ntp91
Rp92
(lp93
I5
aF1.333514062
aS'right_link_base'
p94
abag1
(g12
g3
Ntp95
Rp96
(lp97
g1
(g16
g3
Ntp98
Rp99
(lp100
F0.19458623095249516
aF0.23529622663107186
aF0.8005228841621456
abag1
(g20
g3
Ntp101
Rp102
(lp103
F0.06393564349562585
aF0.7448392596686554
aF-0.44942541722821017
aF-0.4890230108045009
abababag1
(g2
g3
Ntp104
Rp105
(lp106
g1
(g7
g3
Ntp107
Rp108
(lp109
I6
aF1.556216874
aS'right_link_base'
p110
abag1
(g12
g3
Ntp111
Rp112
(lp113
g1
(g16
g3
Ntp114
Rp115
(lp116
F0.17677136465136317
aF0.2709067651306518
aF0.8136318973306763
abag1
(g20
g3
Ntp117
Rp118
(lp119
F0.0554761293084381
aF0.7444042201793141
aF-0.5083598881670507
aF-0.4293657882959059
abababag1
(g2
g3
Ntp120
Rp121
(lp122
g1
(g7
g3
Ntp123
Rp124
(lp125
I7
aF1.7789196870000001
aS'right_link_base'
p126
abag1
(g12
g3
Ntp127
Rp128
(lp129
g1
(g16
g3
Ntp130
Rp131
(lp132
F0.15395881788163374
aF0.30355913214866215
aF0.8256193339470258
abag1
(g20
g3
Ntp133
Rp134
(lp135
F0.04610617793915721
aF0.743049884666467
aF-0.5597971609600234
aF-0.36383818908147947
abababag1
(g2
g3
Ntp136
Rp137
(lp138
g1
(g7
g3
Ntp139
Rp140
(lp141
I8
aF2.001622499
aS'right_link_base'
p142
abag1
(g12
g3
Ntp143
Rp144
(lp145
g1
(g16
g3
Ntp146
Rp147
(lp148
F0.12660976604318586
aF0.3323853673403261
aF0.8366745051869812
abag1
(g20
g3
Ntp149
Rp150
(lp151
F0.03605402016982302
aF0.7409563611474199
aF-0.603064191894833
aF-0.29325306300020154
abababag1
(g2
g3
Ntp152
Rp153
(lp154
g1
(g7
g3
Ntp155
Rp156
(lp157
I9
aF2.444325312
aS'right_link_base'
p158
abag1
(g12
g3
Ntp159
Rp160
(lp161
g1
(g16
g3
Ntp162
Rp163
(lp164
F0.09532898909315102
aF0.35661205206893065
aF0.8469771268348246
abag1
(g20
g3
Ntp165
Rp166
(lp167
F0.025562494508705503
aF0.7382937039503465
aF-0.6375922427123097
aF-0.21850651618397413
abababa.