(lp0
ccopy_reg
_reconstructor
p1
(cgeometry_msgs.msg._PoseStamped
PoseStamped
p2
c__builtin__
object
p3
Ntp4
Rp5
(lp6
g1
(cstd_msgs.msg._Header
Header
p7
g3
Ntp8
Rp9
(lp10
I0
aF0.0
aS'right_link_base'
p11
abag1
(cgeometry_msgs.msg._Pose
Pose
p12
g3
Ntp13
Rp14
(lp15
g1
(cgeometry_msgs.msg._Point
Point
p16
g3
Ntp17
Rp18
(lp19
F-0.24157973239232156
aF0.4568613214819941
aF0.36588748238823005
abag1
(cgeometry_msgs.msg._Quaternion
Quaternion
p20
g3
Ntp21
Rp22
(lp23
F-0.458804353862426
aF-0.4729775972617059
aF0.49794925097015547
aF0.563770610109898
abababag1
(g2
g3
Ntp24
Rp25
(lp26
g1
(g7
g3
Ntp27
Rp28
(lp29
I1
aF0.293763168
aS'right_link_base'
p30
abag1
(g12
g3
Ntp31
Rp32
(lp33
g1
(g16
g3
Ntp34
Rp35
(lp36
F-0.2440930754500068
aF0.4432819917644948
aF0.3652092192375244
abag1
(g20
g3
Ntp37
Rp38
(lp39
F-0.4592435071147509
aF-0.4734588013029956
aF0.4974704707018233
aF0.5634317131839323
abababag1
(g2
g3
Ntp40
Rp41
(lp42
g1
(g7
g3
Ntp43
Rp44
(lp45
I2
aF0.415310177
aS'right_link_base'
p46
abag1
(g12
g3
Ntp47
Rp48
(lp49
g1
(g16
g3
Ntp50
Rp51
(lp52
F-0.24620022257425594
aF0.42948716054847824
aF0.36445020897963026
abag1
(g20
g3
Ntp53
Rp54
(lp55
F-0.45957891146140833
aF-0.4738316590544229
aF0.4970880834819816
aF0.5631822265287592
abababag1
(g2
g3
Ntp56
Rp57
(lp58
g1
(g7
g3
Ntp59
Rp60
(lp61
I3
aF0.509073346
aS'right_link_base'
p62
abag1
(g12
g3
Ntp63
Rp64
(lp65
g1
(g16
g3
Ntp66
Rp67
(lp68
F-0.24789189919307286
aF0.41549513520528825
aF0.36360122439359716
abag1
(g20
g3
Ntp69
Rp70
(lp71
F-0.4598075766386517
aF-0.4740907895949602
aF0.49681196958994245
aF0.5630211208818723
abababag1
(g2
g3
Ntp72
Rp73
(lp74
g1
(g7
g3
Ntp75
Rp76
(lp77
I4
aF0.602836515
aS'right_link_base'
p78
abag1
(g12
g3
Ntp79
Rp80
(lp81
g1
(g16
g3
Ntp82
Rp83
(lp84
F-0.24915941110046874
aF0.40132490028555723
aF0.3626528753791414
abag1
(g20
g3
Ntp85
Rp86
(lp87
F-0.45992676183671516
aF-0.4742308725768108
aF0.49665214381953093
aF0.5629468014660838
abababag1
(g2
g3
Ntp88
Rp89
(lp90
g1
(g7
g3
Ntp91
Rp92
(lp93
I5
aF0.696599683
aS'right_link_base'
p94
abag1
(g12
g3
Ntp95
Rp96
(lp97
g1
(g16
g3
Ntp98
Rp99
(lp100
F-0.24999469435072846
aF0.3869961045848471
aF0.36159564101251324
abag1
(g20
g3
Ntp101
Rp102
(lp103
F-0.4599339763681203
aF-0.4742466596386257
aF0.4966187260953577
aF0.5629570890354246
abababag1
(g2
g3
Ntp104
Rp105
(lp106
g1
(g7
g3
Ntp107
Rp108
(lp109
I6
aF0.790362852
aS'right_link_base'
p110
abag1
(g12
g3
Ntp111
Rp112
(lp113
g1
(g16
g3
Ntp114
Rp115
(lp116
F-0.2503903662907208
aF0.3725290445149574
aF0.3604199023284251
abag1
(g20
g3
Ntp117
Rp118
(lp119
F-0.4598269797922102
aF-0.4741329855957797
aF0.49672191045636244
aF0.563049202377366
abababag1
(g2
g3
Ntp120
Rp121
(lp122
g1
(g7
g3
Ntp123
Rp124
(lp125
I7
aF0.884126021
aS'right_link_base'
p126
abag1
(g12
g3
Ntp127
Rp128
(lp129
g1
(g16
g3
Ntp130
Rp131
(lp132
F-0.2503397774583212
aF0.3579446435536935
aF0.3591159757092051
abag1
(g20
g3
Ntp133
Rp134
(lp135
F-0.45960378150533604
aF-0.4738847793848483
aF0.4969719324783815
aF0.5632197423937411
abababag1
(g2
g3
Ntp136
Rp137
(lp138
g1
(g7
g3
Ntp139
Rp140
(lp141
I8
aF1.00567303
aS'right_link_base'
p142
abag1
(g12
g3
Ntp143
Rp144
(lp145
g1
(g16
g3
Ntp146
Rp147
(lp148
F-0.24983706404614348
aF0.3432644275656609
aF0.3576741467609453
abag1
(g20
g3
Ntp149
Rp150
(lp151
F-0.4592626398071834
aF-0.47349707474016445
aF0.4973790352160225
aF0.5634646778791224
abababag1
(g2
g3
Ntp152
Rp153
(lp154
g1
(g7
g3
Ntp155
Rp156
(lp157
I9
aF1.299436199
aS'right_link_base'
p158
abag1
(g12
g3
Ntp159
Rp160
(lp161
g1
(g16
g3
Ntp162
Rp163
(lp164
F-0.2488772006023759
aF0.3285104958096008
aF0.35608470455547864
abag1
(g20
g3
Ntp165
Rp166
(lp167
F-0.4588020604547145
aF-0.47296502058110496
aF0.4979534337524727
aF0.5637793331112319
abababa.