(lp0
ccopy_reg
_reconstructor
p1
(cgeometry_msgs.msg._PoseStamped
PoseStamped
p2
c__builtin__
object
p3
Ntp4
Rp5
(lp6
g1
(cstd_msgs.msg._Header
Header
p7
g3
Ntp8
Rp9
(lp10
I0
aF0.0
aS'right_link_base'
p11
abag1
(cgeometry_msgs.msg._Pose
Pose
p12
g3
Ntp13
Rp14
(lp15
g1
(cgeometry_msgs.msg._Point
Point
p16
g3
Ntp17
Rp18
(lp19
F0.09621288804959724
aF0.35616016749659063
aF0.8466999570404138
abag1
(cgeometry_msgs.msg._Quaternion
Quaternion
p20
g3
Ntp21
Rp22
(lp23
F0.026928961982423227
aF0.7391889485770327
aF-0.6351563891010018
aF-0.22237556226417285
abababag1
(g2
g3
Ntp24
Rp25
(lp26
g1
(g7
g3
Ntp27
Rp28
(lp29
I1
aF0.610393636
aS'right_link_base'
p30
abag1
(g12
g3
Ntp31
Rp32
(lp33
g1
(g16
g3
Ntp34
Rp35
(lp36
F0.0998105419664888
aF0.3392078186463783
aF0.8409481431759339
abag1
(g20
g3
Ntp37
Rp38
(lp39
F0.08058786258364303
aF0.745208226325939
aF-0.6080761053421844
aF-0.261560214735018
abababag1
(g2
g3
Ntp40
Rp41
(lp42
g1
(g7
g3
Ntp43
Rp44
(lp45
I2
aF1.200787273
aS'right_link_base'
p46
abag1
(g12
g3
Ntp47
Rp48
(lp49
g1
(g16
g3
Ntp50
Rp51
(lp52
F0.09149147396958132
aF0.3165328876297755
aF0.8394142561276045
abag1
(g20
g3
Ntp53
Rp54
(lp55
F0.13223325082906742
aF0.7579047086447394
aF-0.5694573232241581
aF-0.2895050552506579
abababag1
(g2
g3
Ntp56
Rp57
(lp58
g1
(g7
g3
Ntp59
Rp60
(lp61
I3
aF1.79118091
aS'right_link_base'
p62
abag1
(g12
g3
Ntp63
Rp64
(lp65
g1
(g16
g3
Ntp66
Rp67
(lp68
F0.07008390417733538
aF0.2909449798371764
aF0.8396974149337996
abag1
(g20
g3
Ntp69
Rp70
(lp71
F0.1804667521461744
aF0.7767113418227256
aF-0.5211974529597642
aF-0.3041454551394887
abababag1
(g2
g3
Ntp72
Rp73
(lp74
g1
(g7
g3
Ntp75
Rp76
(lp77
I4
aF2.381574547
aS'right_link_base'
p78
abag1
(g12
g3
Ntp79
Rp80
(lp81
g1
(g16
g3
Ntp82
Rp83
(lp84
F0.03556615420702128
aF0.2649542469139432
aF0.8388070845705465
abag1
(g20
g3
Ntp85
Rp86
(lp87
F0.22386341696552817
aF0.8005726424315598
aF-0.4654303348415911
aF-0.30388026942187674
abababag1
(g2
g3
Ntp88
Rp89
(lp90
g1
(g7
g3
Ntp91
Rp92
(lp93
I5
aF2.971968184
aS'right_link_base'
p94
abag1
(g12
g3
Ntp95
Rp96
(lp97
g1
(g16
g3
Ntp98
Rp99
(lp100
F-0.010906004309889611
aF0.24054629479801037
aF0.8334927331761329
abag1
(g20
g3
Ntp101
Rp102
(lp103
F0.261032754897512
aF0.8279849990218082
aF-0.4044230827629009
aF-0.2876538065001464
abababag1
(g2
g3
Ntp104
Rp105
(lp106
g1
(g7
g3
Ntp107
Rp108
(lp109
I6
aF3.562361821
aS'right_link_base'
p110
abag1
(g12
g3
Ntp111
Rp112
(lp113
g1
(g16
g3
Ntp114
Rp115
(lp116
F-0.06707160053494907
aF0.21903179747141732
aF0.8206086691970024
abag1
(g20
g3
Ntp117
Rp118
(lp119
F0.29068066678847027
aF0.8570601741321158
aF-0.3404699808186566
aF-0.25501529372447707
abababag1
(g2
g3
Ntp120
Rp121
(lp122
g1
(g7
g3
Ntp123
Rp124
(lp125
I7
aF4.152755458
aS'right_link_base'
p126
abag1
(g12
g3
Ntp127
Rp128
(lp129
g1
(g16
g3
Ntp130
Rp131
(lp132
F-0.12973093487569773
aF0.20098327567777874
aF0.7974767772373069
abag1
(g20
g3
Ntp133
Rp134
(lp135
F0.311669580836399
aF0.8856091829141316
aF-0.27578854872509806
aF-0.20615315644329027
abababag1
(g2
g3
Ntp136
Rp137
(lp138
g1
(g7
g3
Ntp139
Rp140
(lp141
I8
aF4.743149095
aS'right_link_base'
p142
abag1
(g12
g3
Ntp143
Rp144
(lp145
g1
(g16
g3
Ntp146
Rp147
(lp148
F-0.19499304110867957
aF0.1862619559481189
aF0.7622098922139576
abag1
(g20
g3
Ntp149
Rp150
(lp151
F0.3230741654797635
aF0.9112427435116977
aF-0.2124227268362856
aF-0.14190254092251361
abababag1
(g2
g3
Ntp152
Rp153
(lp154
g1
(g7
g3
Ntp155
Rp156
(lp157
I9
aF5.333542731
aS'right_link_base'
p158
abag1
(g12
g3
Ntp159
Rp160
(lp161
g1
(g16
g3
Ntp162
Rp163
(lp164
F-0.2585841460520999
aF0.17412799606401053
aF0.7139620907289946
abag1
(g20
g3
Ntp165
Rp166
(lp167
F0.32423016915922775
aF0.9314836875335866
aF-0.15215772735541902
aF-0.0637256876922035
abababag1
(g2
g3
Ntp168
Rp169
(lp170
g1
(g7
g3
Ntp171
Rp172
(lp173
I10
aF5.923936368
aS'right_link_base'
p174
abag1
(g12
g3
Ntp175
Rp176
(lp177
g1
(g16
g3
Ntp178
Rp179
(lp180
F-0.3161919529607604
aF0.16341854290858482
aF0.653078939263577
abag1
(g20
g3
Ntp181
Rp182
(lp183
F0.31477421677098405
aF0.9438861244429918
aF-0.09645047563243035
aF0.02633405191914875
abababag1
(g2
g3
Ntp184
Rp185
(lp186
g1
(g7
g3
Ntp187
Rp188
(lp189
I11
aF6.514330005
aS'right_link_base'
p190
abag1
(g12
g3
Ntp191
Rp192
(lp193
g1
(g16
g3
Ntp194
Rp195
(lp196
F-0.3638173795056985
aF0.15277090408831695
aF0.5811301694091866
abag1
(g20
g3
Ntp197
Rp198
(lp199
F0.2946727619687305
aF0.9461557996015357
aF-0.046378755474472115
aF0.12572262037810672
abababag1
(g2
g3
Ntp200
Rp201
(lp202
g1
(g7
g3
Ntp203
Rp204
(lp205
I12
aF7.124723642
aS'right_link_base'
p206
abag1
(g12
g3
Ntp207
Rp208
(lp209
g1
(g16
g3
Ntp210
Rp211
(lp212
F-0.3981044411273633
aF0.14086326729762688
aF0.5008185714247471
abag1
(g20
g3
Ntp213
Rp214
(lp215
F0.264238837125323
aF0.9362659891176671
aF-0.0026112154750391973
aF0.2314670951343112
abababa.