(lp0
ccopy_reg
_reconstructor
p1
(cgeometry_msgs.msg._PoseStamped
PoseStamped
p2
c__builtin__
object
p3
Ntp4
Rp5
(lp6
g1
(cstd_msgs.msg._Header
Header
p7
g3
Ntp8
Rp9
(lp10
I0
aF0.0
aS'right_link_base'
p11
abag1
(cgeometry_msgs.msg._Pose
Pose
p12
g3
Ntp13
Rp14
(lp15
g1
(cgeometry_msgs.msg._Point
Point
p16
g3
Ntp17
Rp18
(lp19
F-0.3967146420304089
aF0.13348893780620363
aF0.4992027752275513
abag1
(cgeometry_msgs.msg._Quaternion
Quaternion
p20
g3
Ntp21
Rp22
(lp23
F0.257276279819871
aF0.9384273833388337
aF0.006317257914692894
aF0.23048439056542738
abababag1
(g2
g3
Ntp24
Rp25
(lp26
g1
(g7
g3
Ntp27
Rp28
(lp29
I1
aF0.296143892
aS'right_link_base'
p30
abag1
(g12
g3
Ntp31
Rp32
(lp33
g1
(g16
g3
Ntp34
Rp35
(lp36
F-0.386865760015684
aF0.12909784504085176
aF0.49309832692243416
abag1
(g20
g3
Ntp37
Rp38
(lp39
F0.24323325245719
aF0.9465379541922566
aF0.010553491027249576
aF0.2116414656908529
abababag1
(g2
g3
Ntp40
Rp41
(lp42
g1
(g7
g3
Ntp43
Rp44
(lp45
I2
aF0.420605953
aS'right_link_base'
p46
abag1
(g12
g3
Ntp47
Rp48
(lp49
g1
(g16
g3
Ntp50
Rp51
(lp52
F-0.37675343044782655
aF0.12481317055662444
aF0.48689570586048647
abag1
(g20
g3
Ntp53
Rp54
(lp55
F0.22807237355911217
aF0.9542611126382714
aF0.01508508898195881
aF0.19272042293407216
abababag1
(g2
g3
Ntp56
Rp57
(lp58
g1
(g7
g3
Ntp59
Rp60
(lp61
I3
aF0.515739858
aS'right_link_base'
p62
abag1
(g12
g3
Ntp63
Rp64
(lp65
g1
(g16
g3
Ntp66
Rp67
(lp68
F-0.3663781728175164
aF0.12064744227690571
aF0.4806035309987847
abag1
(g20
g3
Ntp69
Rp70
(lp71
F0.21181214689210823
aF0.9615360656764101
aF0.01990052770785168
aF0.17374687861781915
abababag1
(g2
g3
Ntp72
Rp73
(lp74
g1
(g7
g3
Ntp75
Rp76
(lp77
I4
aF0.596872075
aS'right_link_base'
p78
abag1
(g12
g3
Ntp79
Rp80
(lp81
g1
(g16
g3
Ntp82
Rp83
(lp84
F-0.3557413096717067
aF0.11661318341944926
aF0.47423075629398015
abag1
(g20
g3
Ntp85
Rp86
(lp87
F0.19447570632818145
aF0.9683020439665443
aF0.024986922044308076
aF0.1547449676891601
abababag1
(g2
g3
Ntp88
Rp89
(lp90
g1
(g7
g3
Ntp91
Rp92
(lp93
I5
aF0.671054493
aS'right_link_base'
p94
abag1
(g12
g3
Ntp95
Rp96
(lp97
g1
(g16
g3
Ntp98
Rp99
(lp100
F-0.3448449996217778
aF0.11272284951731426
aF0.4677866287610566
abag1
(g20
g3
Ntp101
Rp102
(lp103
F0.1760908202668738
aF0.9744985905217725
aF0.030330203576527055
aF0.13573724190444192
abababag1
(g2
g3
Ntp104
Rp105
(lp106
g1
(g7
g3
Ntp107
Rp108
(lp109
I6
aF0.754645098
aS'right_link_base'
p110
abag1
(g12
g3
Ntp111
Rp112
(lp113
g1
(g16
g3
Ntp114
Rp115
(lp116
F-0.33369226605784935
aF0.10898876482204467
aF0.4612806417196511
abag1
(g20
g3
Ntp117
Rp118
(lp119
F0.15668987650812227
aF0.9800658524547193
aF0.03591530565827058
aF0.11674458561983359
abababag1
(g2
g3
Ntp120
Rp121
(lp122
g1
(g7
g3
Ntp123
Rp124
(lp125
I7
aF0.854114839
aS'right_link_base'
p126
abag1
(g12
g3
Ntp127
Rp128
(lp129
g1
(g16
g3
Ntp130
Rp131
(lp132
F-0.32228702112672786
aF0.10542305849331957
aF0.45472248373397717
abag1
(g20
g3
Ntp133
Rp134
(lp135
F0.1363098473326454
aF0.9849448745131903
aF0.041726353958395176
aF0.09778614971296032
abababag1
(g2
g3
Ntp136
Rp137
(lp138
g1
(g7
g3
Ntp139
Rp140
(lp141
I8
aF0.978636812
aS'right_link_base'
p142
abag1
(g12
g3
Ntp143
Rp144
(lp145
g1
(g16
g3
Ntp146
Rp147
(lp148
F-0.31063408456814207
aF0.10203760096928272
aF0.44812198380841506
abag1
(g20
g3
Ntp149
Rp150
(lp151
F0.11499223463031885
aF0.9890778931178297
aF0.047746860830443404
aF0.07887930401036239
abababag1
(g2
g3
Ntp152
Rp153
(lp154
g1
(g7
g3
Ntp155
Rp156
(lp157
I9
aF1.2747807039999999
aS'right_link_base'
p158
abag1
(g12
g3
Ntp159
Rp160
(lp161
g1
(g16
g3
Ntp162
Rp163
(lp164
F-0.298739197047071
aF0.0988439409004096
aF0.4414890534499414
abag1
(g20
g3
Ntp165
Rp166
(lp167
F0.0927829950025611
aF0.9924086295966454
aF0.05395992178059418
aF0.060039608442219235
abababa.