(lp0
ccopy_reg
_reconstructor
p1
(cgeometry_msgs.msg._PoseStamped
PoseStamped
p2
c__builtin__
object
p3
Ntp4
Rp5
(lp6
g1
(cstd_msgs.msg._Header
Header
p7
g3
Ntp8
Rp9
(lp10
I0
aF0.0
aS'right_link_base'
p11
abag1
(cgeometry_msgs.msg._Pose
Pose
p12
g3
Ntp13
Rp14
(lp15
g1
(cgeometry_msgs.msg._Point
Point
p16
g3
Ntp17
Rp18
(lp19
F-0.24891267248547555
aF0.3284774203102243
aF0.35613588370775084
abag1
(cgeometry_msgs.msg._Quaternion
Quaternion
p20
g3
Ntp21
Rp22
(lp23
F-0.45881656851699376
aF-0.47302827691136307
aF0.49793544585552535
aF0.5637303410826997
abababag1
(g2
g3
Ntp24
Rp25
(lp26
g1
(g7
g3
Ntp27
Rp28
(lp29
I1
aF0.23513934
aS'right_link_base'
p30
abag1
(g12
g3
Ntp31
Rp32
(lp33
g1
(g16
g3
Ntp34
Rp35
(lp36
F-0.2527025419929735
aF0.33077827459317644
aF0.34172828032229197
abag1
(g20
g3
Ntp37
Rp38
(lp39
F-0.4576485553191299
aF-0.47410818192775717
aF0.49874414168620235
aF0.5630572908480659
abababag1
(g2
g3
Ntp40
Rp41
(lp42
g1
(g7
g3
Ntp43
Rp44
(lp45
I2
aF0.332035851
aS'right_link_base'
p46
abag1
(g12
g3
Ntp47
Rp48
(lp49
g1
(g16
g3
Ntp50
Rp51
(lp52
F-0.25604304797686234
aF0.33280296063866155
aF0.32717278445491893
abag1
(g20
g3
Ntp53
Rp54
(lp55
F-0.45676270862589347
aF-0.4748773046732183
aF0.4993968226235091
aF0.5625497196413664
abababag1
(g2
g3
Ntp56
Rp57
(lp58
g1
(g7
g3
Ntp59
Rp60
(lp61
I3
aF0.417175191
aS'right_link_base'
p62
abag1
(g12
g3
Ntp63
Rp64
(lp65
g1
(g16
g3
Ntp66
Rp67
(lp68
F-0.25892358353172024
aF0.33455594443757364
aF0.31249081283879576
abag1
(g20
g3
Ntp69
Rp70
(lp71
F-0.45616534599742437
aF-0.4753519972773804
aF0.49987363323672296
aF0.5622099310668334
abababag1
(g2
g3
Ntp72
Rp73
(lp74
g1
(g7
g3
Ntp75
Rp76
(lp77
I4
aF0.502314531
aS'right_link_base'
p78
abag1
(g12
g3
Ntp79
Rp80
(lp81
g1
(g16
g3
Ntp82
Rp83
(lp84
F-0.2613344405191587
aF0.3360422319629057
aF0.2977041311963641
abag1
(g20
g3
Ntp85
Rp86
(lp87
F-0.4558615371333108
aF-0.47554902424509665
aF0.5001549165655622
aF0.5620395394785739
abababag1
(g2
g3
Ntp88
Rp89
(lp90
g1
(g7
g3
Ntp91
Rp92
(lp93
I5
aF0.587453871
aS'right_link_base'
p94
abag1
(g12
g3
Ntp95
Rp96
(lp97
g1
(g16
g3
Ntp98
Rp99
(lp100
F-0.2632668391681404
aF0.3372673522881713
aF0.2828348070512895
abag1
(g20
g3
Ntp101
Rp102
(lp103
F-0.45585509251054807
aF-0.4754854937870326
aF0.5002212629893841
aF0.5620394718199132
abababag1
(g2
g3
Ntp104
Rp105
(lp106
g1
(g7
g3
Ntp107
Rp108
(lp109
I6
aF0.672593211
aS'right_link_base'
p110
abag1
(g12
g3
Ntp111
Rp112
(lp113
g1
(g16
g3
Ntp114
Rp115
(lp116
F-0.26471295494941227
aF0.3382373390707649
aF0.26790516136917797
abag1
(g20
g3
Ntp117
Rp118
(lp119
F-0.45614855619213124
aF-0.4751787886077491
aF0.5000535586579313
aF0.5622099714649726
abababag1
(g2
g3
Ntp120
Rp121
(lp122
g1
(g7
g3
Ntp123
Rp124
(lp125
I7
aF0.757732552
aS'right_link_base'
p126
abag1
(g12
g3
Ntp127
Rp128
(lp129
g1
(g16
g3
Ntp130
Rp131
(lp132
F-0.2656659425980182
aF0.3389587104713092
aF0.2529377192017851
abag1
(g20
g3
Ntp133
Rp134
(lp135
F-0.4567432028234086
aF-0.4746464963852506
aF0.4996330333645727
aF0.562550604047971
abababag1
(g2
g3
Ntp136
Rp137
(lp138
g1
(g7
g3
Ntp139
Rp140
(lp141
I8
aF0.854629062
aS'right_link_base'
p142
abag1
(g12
g3
Ntp143
Rp144
(lp145
g1
(g16
g3
Ntp146
Rp147
(lp148
F-0.26611995717087145
aF0.3394384475877783
aF0.2379551595159224
abag1
(g20
g3
Ntp149
Rp150
(lp151
F-0.45763903881984896
aF-0.473906340176722
aF0.4989413077440839
aF0.5630602652602767
abababag1
(g2
g3
Ntp152
Rp153
(lp154
g1
(g7
g3
Ntp155
Rp156
(lp157
I9
aF1.0897684029999999
aS'right_link_base'
p158
abag1
(g12
g3
Ntp159
Rp160
(lp161
g1
(g16
g3
Ntp162
Rp163
(lp164
F-0.2660701720401625
aF0.3396839714904767
aF0.22298026439382457
abag1
(g20
g3
Ntp165
Rp166
(lp167
F-0.4588348077363167
aF-0.4729761089851161
aF0.497960439678407
aF0.5637371905898748
abababa.